(lp0
(lp1
S'Use'
p2
ag2
aF1000.0
aa(lp3
g2
aS'Qu'
p4
acnumpy.core.multiarray
scalar
p5
(cnumpy
dtype
p6
(S'f8'
p7
I0
I1
tp8
Rp9
(I3
S'<'
p10
NNNI-1
I-1
I0
tp11
bS'\x98\xf0\x0bkY\xec\xf7?'
p12
tp13
Rp14
aa(lp15
g2
aS'PU'
p16
ag5
(g9
S'g\xdc\xed\x16D"\xfb?'
p17
tp18
Rp19
aa(lp20
g2
aS'PEU'
p21
ag5
(g9
S'\xe8\x12c\x12\x98\xb6\xf5?'
p22
tp23
Rp24
aa(lp25
g2
aS'ENJ'
p26
ag5
(g9
S'\xd4\x1bT"\x15\xaf\xf8?'
p27
tp28
Rp29
aa(lp30
g2
aS'BI'
p31
ag5
(g9
S'\x0eI\x8d\xde\x7f[\x01@'
p32
tp33
Rp34
aa(lp35
g2
aS'JR'
p36
ag5
(g9
S'\x11\xef>\x1e\xff\xf3\xf5?'
p37
tp38
Rp39
aa(lp40
g2
aS'Pf'
p41
ag5
(g9
S'y\x88\xfb\x0b@\xe3\xf6?'
p42
tp43
Rp44
aa(lp45
g2
aS'Im'
p46
ag5
(g9
S'\xe6P \xee\xfd0\xf8?'
p47
tp48
Rp49
aa(lp50
g2
aS'SA'
p51
ag5
(g9
S'\xac\xf8\xd8\xa0\xd6@\xf6?'
p52
tp53
Rp54
aa(lp55
g4
ag2
ag5
(g9
S'\xcf\x87\xe3\xb2\xdd%\xf8?'
p56
tp57
Rp58
aa(lp59
g4
ag4
aF1000.0
aa(lp60
g4
ag16
ag5
(g9
S'\xca\x84T\xc8R\x88\xf8?'
p61
tp62
Rp63
aa(lp64
g4
ag21
ag5
(g9
S'+o\xff\xf3\xf4\xad\xf5?'
p65
tp66
Rp67
aa(lp68
g4
ag26
ag5
(g9
S'\x05k\x1do\xc5\xe2\xf6?'
p69
tp70
Rp71
aa(lp72
g4
ag31
ag5
(g9
S'\xac\xdd\xc4\x1et\x04\xfa?'
p73
tp74
Rp75
aa(lp76
g4
ag36
ag5
(g9
S'+\xc4\xc7\xd2\xa20\xf6?'
p77
tp78
Rp79
aa(lp80
g4
ag41
ag5
(g9
S'A\xa6\xd2\xd5\xaa\xe7\xf5?'
p81
tp82
Rp83
aa(lp84
g4
ag46
ag5
(g9
S'\x95\xba:\xc2xb\xf7?'
p85
tp86
Rp87
aa(lp88
g4
ag51
ag5
(g9
S'\xf3m\xfd\x8d1\xbf\xf5?'
p89
tp90
Rp91
aa(lp92
g16
ag2
ag5
(g9
S'Op\xe3RY\x83\xf9?'
p93
tp94
Rp95
aa(lp96
g16
ag4
ag5
(g9
S'M\xd1\xa4\x8e\xfc2\xf8?'
p97
tp98
Rp99
aa(lp100
g16
ag16
aF1000.0
aa(lp101
g16
ag21
ag5
(g9
S'8\x90!\xb8\x00|\xf5?'
p102
tp103
Rp104
aa(lp105
g16
ag26
ag5
(g9
S"\xacQ'\xa2\xde\x86\xf7?"
p106
tp107
Rp108
aa(lp109
g16
ag31
ag5
(g9
S'\x9c,F2\xff,\xfc?'
p110
tp111
Rp112
aa(lp113
g16
ag36
ag5
(g9
S'\xddn\x02s\x8f\xb3\xf5?'
p114
tp115
Rp116
aa(lp117
g16
ag41
ag5
(g9
S'\xa7\x15W\xa6\x08\xc7\xf5?'
p118
tp119
Rp120
aa(lp121
g16
ag46
ag5
(g9
S'!T\x15d9\x14\xf7?'
p122
tp123
Rp124
aa(lp125
g16
ag51
ag5
(g9
S'\xedH\xa1\xd9\xf8\x86\xf4?'
p126
tp127
Rp128
aa(lp129
g21
ag2
ag5
(g9
S'\xf7\xe64\xe8\xc3\xda\xf5?'
p130
tp131
Rp132
aa(lp133
g21
ag4
ag5
(g9
S'\x93B\xc2gw\xae\xf6?'
p134
tp135
Rp136
aa(lp137
g21
ag16
ag5
(g9
S'\x84\xe10=\x98\xb4\xf5?'
p138
tp139
Rp140
aa(lp141
g21
ag21
aF1000.0
aa(lp142
g21
ag26
ag5
(g9
S'\x83\x17\xb7P^\xc6\xf8?'
p143
tp144
Rp145
aa(lp146
g21
ag31
ag5
(g9
S'2tC\nuu\xf7?'
p147
tp148
Rp149
aa(lp150
g21
ag36
ag5
(g9
S'\xde>@\x972\xca\xf5?'
p151
tp152
Rp153
aa(lp154
g21
ag41
ag5
(g9
S'\x1c4\x1cyhN\xf5?'
p155
tp156
Rp157
aa(lp158
g21
ag46
ag5
(g9
S'1\x9a\xd62B\x15\xf5?'
p159
tp160
Rp161
aa(lp162
g21
ag51
ag5
(g9
S'\xdc\xf5\xfc\xdc\xe7\xc2\xf4?'
p163
tp164
Rp165
aa(lp166
g26
ag2
ag5
(g9
S'\xf8\x0e\xf9\xbff\x82\xf5?'
p167
tp168
Rp169
aa(lp170
g26
ag4
ag5
(g9
S'\xb3\xee\x80\x16 \xc1\xf6?'
p171
tp172
Rp173
aa(lp174
g26
ag16
ag5
(g9
S'\xb8_\xc1\xd3\x96\xfa\xf6?'
p175
tp176
Rp177
aa(lp178
g26
ag21
ag5
(g9
S'`\x0b\xe4|\n]\xf6?'
p179
tp180
Rp181
aa(lp182
g26
ag26
aF1000.0
aa(lp183
g26
ag31
ag5
(g9
S'5\xbd\xcfP\xc3~\xf7?'
p184
tp185
Rp186
aa(lp187
g26
ag36
ag5
(g9
S'\x82}\xa7aRY\xf6?'
p188
tp189
Rp190
aa(lp191
g26
ag41
ag5
(g9
S'Ukz\x1c\x8d\xad\xf5?'
p192
tp193
Rp194
aa(lp195
g26
ag46
ag5
(g9
S'\x08\xdc%"\x8c\xad\xf5?'
p196
tp197
Rp198
aa(lp199
g26
ag51
ag5
(g9
S'\xc5\x948\x0c\r\x01\xf5?'
p200
tp201
Rp202
aa(lp203
g31
ag2
ag5
(g9
S'\x835\xd1Y\xb6(\xfc?'
p204
tp205
Rp206
aa(lp207
g31
ag4
ag5
(g9
S'\r\x87\x07\xb8\x08\x06\xf7?'
p208
tp209
Rp210
aa(lp211
g31
ag16
ag5
(g9
S'G\x0e\x9c\xae\n\x94\xf9?'
p212
tp213
Rp214
aa(lp215
g31
ag21
ag5
(g9
S'\x12b\x05\xd4\xc9}\xf5?'
p216
tp217
Rp218
aa(lp219
g31
ag26
ag5
(g9
S']\xbb\x13\xab\xff\xd0\xf7?'
p220
tp221
Rp222
aa(lp223
g31
ag31
aF1000.0
aa(lp224
g31
ag36
ag5
(g9
S'r\xe8n\xc2M\xc2\xf6?'
p225
tp226
Rp227
aa(lp228
g31
ag41
ag5
(g9
S'E\xf1Na\x98\xc9\xf6?'
p229
tp230
Rp231
aa(lp232
g31
ag46
ag5
(g9
S'y\x1f\xcfU[\t\xf7?'
p233
tp234
Rp235
aa(lp236
g31
ag51
ag5
(g9
S'\xdd\x99\x9ez\xee%\xf5?'
p237
tp238
Rp239
aa(lp240
g36
ag2
ag5
(g9
S'\xb6\xd0Q\xffO\xda\xf4?'
p241
tp242
Rp243
aa(lp244
g36
ag4
ag5
(g9
S'\x80\xf7\xd8\xb2zw\xf5?'
p245
tp246
Rp247
aa(lp248
g36
ag16
ag5
(g9
S'\xb9m\xfeEcW\xf5?'
p249
tp250
Rp251
aa(lp252
g36
ag21
ag5
(g9
S'|\x14B=\xe4_\xf5?'
p253
tp254
Rp255
aa(lp256
g36
ag26
ag5
(g9
S'Y\\/E\x88(\xf6?'
p257
tp258
Rp259
aa(lp260
g36
ag31
ag5
(g9
S'\xf63*\x90E|\xf7?'
p261
tp262
Rp263
aa(lp264
g36
ag36
aF1000.0
aa(lp265
g36
ag41
ag5
(g9
S"O'\xca\xbaO\xca\xf5?"
p266
tp267
Rp268
aa(lp269
g36
ag46
ag5
(g9
S'T\xfc\xa8\xdcJ^\xf5?'
p270
tp271
Rp272
aa(lp273
g36
ag51
ag5
(g9
S'N\xc4\xd08\xf0\x11\xf5?'
p274
tp275
Rp276
aa(lp277
g41
ag2
ag5
(g9
S'w3\x1d"2\xdc\xf5?'
p278
tp279
Rp280
aa(lp281
g41
ag4
ag5
(g9
S'5d\x91\x9e"\x06\xf6?'
p282
tp283
Rp284
aa(lp285
g41
ag16
ag5
(g9
S'KnP\xec\xe9\xea\xf5?'
p286
tp287
Rp288
aa(lp289
g41
ag21
ag5
(g9
S'w\xc5O$?)\xf5?'
p290
tp291
Rp292
aa(lp293
g41
ag26
ag5
(g9
S'\xeeO\xe9\x00\xe4<\xf5?'
p294
tp295
Rp296
aa(lp297
g41
ag31
ag5
(g9
S'$Wp\xab\x86 \xf7?'
p298
tp299
Rp300
aa(lp301
g41
ag36
ag5
(g9
S'?\xc5\xf9\xf5\x1f\x04\xf6?'
p302
tp303
Rp304
aa(lp305
g41
ag41
aF1000.0
aa(lp306
g41
ag46
ag5
(g9
S'p0?\x02\xb9\xc1\xf5?'
p307
tp308
Rp309
aa(lp310
g41
ag51
ag5
(g9
S'WoXZ\xfd\\\xf5?'
p311
tp312
Rp313
aa(lp314
g46
ag2
ag5
(g9
S'\xc1\x1f\xb0\x8b\xcf*\xf8?'
p315
tp316
Rp317
aa(lp318
g46
ag4
ag5
(g9
S'?\xb1\xeb\xccT\t\xf7?'
p319
tp320
Rp321
aa(lp322
g46
ag16
ag5
(g9
S'\xe0\x8f\xf9c\xd1r\xf7?'
p323
tp324
Rp325
aa(lp326
g46
ag21
ag5
(g9
S'\xbb\xf8\x8c\xe1\x96h\xf5?'
p327
tp328
Rp329
aa(lp330
g46
ag26
ag5
(g9
S'#4\xb5\xf5\x88|\xf6?'
p331
tp332
Rp333
aa(lp334
g46
ag31
ag5
(g9
S'\x88\xab\xb3u\xae\x0e\xf9?'
p335
tp336
Rp337
aa(lp338
g46
ag36
ag5
(g9
S'\x97D1\xc9\x0cn\xf6?'
p339
tp340
Rp341
aa(lp342
g46
ag41
ag5
(g9
S'\xd7b\xf6\x8c\xdf\xae\xf5?'
p343
tp344
Rp345
aa(lp346
g46
ag46
aF1000.0
aa(lp347
g46
ag51
ag5
(g9
S'~\xc9\xf0\x0c\xfd\x93\xf5?'
p348
tp349
Rp350
aa(lp351
g51
ag2
ag5
(g9
S'\xd5*\xaf*j\xd3\xf4?'
p352
tp353
Rp354
aa(lp355
g51
ag4
ag5
(g9
S'\xa1 gx)Y\xf6?'
p356
tp357
Rp358
aa(lp359
g51
ag16
ag5
(g9
S'>\xe7\x85X\x83\x16\xf5?'
p360
tp361
Rp362
aa(lp363
g51
ag21
ag5
(g9
S':\xd3\xe6Ya9\xf5?'
p364
tp365
Rp366
aa(lp367
g51
ag26
ag5
(g9
S'\xe5C"L\xab\xc9\xf7?'
p368
tp369
Rp370
aa(lp371
g51
ag31
ag5
(g9
S'\xad\xc1[\x13\xe7\xf4\xf6?'
p372
tp373
Rp374
aa(lp375
g51
ag36
ag5
(g9
S'M}*?\xdc\xd3\xf6?'
p376
tp377
Rp378
aa(lp379
g51
ag41
ag5
(g9
S'`\xea\xe1\xbbY\xab\xf6?'
p380
tp381
Rp382
aa(lp383
g51
ag46
ag5
(g9
S'\x9e"xy\xd3t\xf5?'
p384
tp385
Rp386
aa(lp387
g51
ag51
aF1000.0
aa.