(lp0
(lp1
S'Use'
p2
aS'Qu'
p3
acnumpy.core.multiarray
scalar
p4
(cnumpy
dtype
p5
(S'f8'
p6
I0
I1
tp7
Rp8
(I3
S'<'
p9
NNNI-1
I-1
I0
tp10
bS'?\xd2O%\x19S\xf8?'
p11
tp12
Rp13
aa(lp14
g2
aS'PU'
p15
ag4
(g8
S'\xb5\x934\x9a\xb0U\xfb?'
p16
tp17
Rp18
aa(lp19
g2
aS'PEU'
p20
ag4
(g8
S'1\x8e\xcb\xf8\x08\xd7\xf5?'
p21
tp22
Rp23
aa(lp24
g2
aS'ENJ'
p25
ag4
(g8
S'{\x97]H+\n\xf8?'
p26
tp27
Rp28
aa(lp29
g2
aS'BI'
p30
ag4
(g8
S'\x07\xed\x97\xf3!n\x01@'
p31
tp32
Rp33
aa(lp34
g2
aS'JR'
p35
ag4
(g8
S'\xa8\xe5\x98\xc5\x95\xd9\xf5?'
p36
tp37
Rp38
aa(lp39
g2
aS'Vis'
p40
ag4
(g8
S'\x8d1su\xda\x99\xfa?'
p41
tp42
Rp43
aa(lp44
g2
aS'Pf'
p45
ag4
(g8
S'\n\x8bc\x97\x18\xf3\xf7?'
p46
tp47
Rp48
aa(lp49
g2
aS'Exp'
p50
ag4
(g8
S'l\x88\x9f\xa0\x99X\xfa?'
p51
tp52
Rp53
aa(lp54
g2
aS'Im'
p55
ag4
(g8
S'{\x03$\xcec\xc1\xf7?'
p56
tp57
Rp58
aa(lp59
g2
aS'SA'
p60
ag4
(g8
S'\xb8P\x00\xa4\rM\xf6?'
p61
tp62
Rp63
aa(lp64
g2
aS'Inc'
p65
ag4
(g8
S'K\xaf*i\x1f\x0f\xf7?'
p66
tp67
Rp68
aa(lp69
S'Qu'
p70
aS'Use'
p71
ag4
(g8
S'\xb4\xe3\x80\xf1Y\xc3\xf7?'
p72
tp73
Rp74
aa(lp75
g70
aS'PU'
p76
ag4
(g8
S" S\x0f'\x85\xba\xf9?"
p77
tp78
Rp79
aa(lp80
g70
aS'PEU'
p81
ag4
(g8
S'\xee\x12\x90\xb7\x02\x01\xf6?'
p82
tp83
Rp84
aa(lp85
g70
aS'ENJ'
p86
ag4
(g8
S'u\x13L\x15\xda\x16\xf7?'
p87
tp88
Rp89
aa(lp90
g70
aS'BI'
p91
ag4
(g8
S'(`DU$t\xfb?'
p92
tp93
Rp94
aa(lp95
g70
aS'JR'
p96
ag4
(g8
S'+\xd4b\xfa6\x9a\xf7?'
p97
tp98
Rp99
aa(lp100
g70
aS'Vis'
p101
ag4
(g8
S'\xe2AF\xae\x88i\xf9?'
p102
tp103
Rp104
aa(lp105
g70
aS'Pf'
p106
ag4
(g8
S'\xd9:m0\x07\xbe\xf6?'
p107
tp108
Rp109
aa(lp110
g70
aS'Exp'
p111
ag4
(g8
S'#TR\x08\xd79\xf8?'
p112
tp113
Rp114
aa(lp115
g70
aS'Im'
p116
ag4
(g8
S'\x94*\xe4\xd4\x93\x82\xf6?'
p117
tp118
Rp119
aa(lp120
g70
aS'SA'
p121
ag4
(g8
S'\x00\x874b!\xa7\xf5?'
p122
tp123
Rp124
aa(lp125
g70
aS'Inc'
p126
ag4
(g8
S'0\xbc\xc6\xaa\xc3%\xf7?'
p127
tp128
Rp129
aa(lp130
S'PU'
p131
aS'Use'
p132
ag4
(g8
S"'\xa5*\xa7E?\xfa?"
p133
tp134
Rp135
aa(lp136
g131
aS'Qu'
p137
ag4
(g8
S'\x18agi\x0e\xd8\xf7?'
p138
tp139
Rp140
aa(lp141
g131
aS'PEU'
p142
ag4
(g8
S'=c\xc2\x97\x96\x10\xf6?'
p143
tp144
Rp145
aa(lp146
g131
aS'ENJ'
p147
ag4
(g8
S'\xfd\xa7\r\x0b\xe9K\xf8?'
p148
tp149
Rp150
aa(lp151
g131
aS'BI'
p152
ag4
(g8
S'\xc8\x0e\xab|\x8b/\xfc?'
p153
tp154
Rp155
aa(lp156
g131
aS'JR'
p157
ag4
(g8
S'\xc0,\xea\xfe\xb3\x94\xf6?'
p158
tp159
Rp160
aa(lp161
g131
aS'Vis'
p162
ag4
(g8
S'\xb8;\x9bn\xf2\x93\xf9?'
p163
tp164
Rp165
aa(lp166
g131
aS'Pf'
p167
ag4
(g8
S'-\x9b\xc6\xa1\t\xce\xf6?'
p168
tp169
Rp170
aa(lp171
g131
aS'Exp'
p172
ag4
(g8
S'\x94\xf4\xad\xce\x10_\xf8?'
p173
tp174
Rp175
aa(lp176
g131
aS'Im'
p177
ag4
(g8
S']T\xc8\xa5\x90\xe1\xf6?'
p178
tp179
Rp180
aa(lp181
g131
aS'SA'
p182
ag4
(g8
S'N\xc6\xd8b\x00\xc6\xf5?'
p183
tp184
Rp185
aa(lp186
g131
aS'Inc'
p187
ag4
(g8
S'\x0c\x11C?%h\xf6?'
p188
tp189
Rp190
aa(lp191
S'PEU'
p192
aS'Use'
p193
ag4
(g8
S'\xfe\x83\xbc;\xdb\x1e\xf7?'
p194
tp195
Rp196
aa(lp197
g192
aS'Qu'
p198
ag4
(g8
S'\x94\x0e\x00]\xda\x8d\xf6?'
p199
tp200
Rp201
aa(lp202
g192
aS'PU'
p203
ag4
(g8
S'`p\xb8^\xc8\x8f\xf7?'
p204
tp205
Rp206
aa(lp207
g192
aS'ENJ'
p208
ag4
(g8
S'\x87\x98\xd19\xef\x0c\xf8?'
p209
tp210
Rp211
aa(lp212
g192
aS'BI'
p213
ag4
(g8
S'F\xad\x10\x07}\xf3\xf8?'
p214
tp215
Rp216
aa(lp217
g192
aS'JR'
p218
ag4
(g8
S'\xce\xbe\x1ehd!\xf6?'
p219
tp220
Rp221
aa(lp222
g192
aS'Vis'
p223
ag4
(g8
S'\xc1J\x99%\x8b\xca\xfa?'
p224
tp225
Rp226
aa(lp227
g192
aS'Pf'
p228
ag4
(g8
S'\xeaF:\xeb\x98a\xf6?'
p229
tp230
Rp231
aa(lp232
g192
aS'Exp'
p233
ag4
(g8
S'r\xfb\x849\xb1q\xf6?'
p234
tp235
Rp236
aa(lp237
g192
aS'Im'
p238
ag4
(g8
S'\xe9\x04\xfb\xbfn\x13\xf6?'
p239
tp240
Rp241
aa(lp242
g192
aS'SA'
p243
ag4
(g8
S'\xa3T\xa5(\x16a\xf5?'
p244
tp245
Rp246
aa(lp247
g192
aS'Inc'
p248
ag4
(g8
S'u\xeb\xee\t$g\xf6?'
p249
tp250
Rp251
aa(lp252
S'ENJ'
p253
aS'Use'
p254
ag4
(g8
S'm\x0f\t\\\x84:\xf7?'
p255
tp256
Rp257
aa(lp258
g253
aS'Qu'
p259
ag4
(g8
S'\xb4\x13\x93\x89\x8bz\xf6?'
p260
tp261
Rp262
aa(lp263
g253
aS'PU'
p264
ag4
(g8
S'i\xdf:\xc7\xc1Z\xf8?'
p265
tp266
Rp267
aa(lp268
g253
aS'PEU'
p269
ag4
(g8
S'\x05\x9d\xd5mZP\xf7?'
p270
tp271
Rp272
aa(lp273
g253
aS'BI'
p274
ag4
(g8
S'\xb3]\xa9S\xef\xed\xf8?'
p275
tp276
Rp277
aa(lp278
g253
aS'JR'
p279
ag4
(g8
S')\xee\xb3\xc7\xc4y\xf6?'
p280
tp281
Rp282
aa(lp283
g253
aS'Vis'
p284
ag4
(g8
S'\xa8.C\xf3xV\xf7?'
p285
tp286
Rp287
aa(lp288
g253
aS'Im'
p289
ag4
(g8
S'\x18\xccc\x86\x11a\xf6?'
p290
tp291
Rp292
aa(lp293
g253
aS'Exp'
p294
ag4
(g8
S'o%X\xaa\xbfU\xf7?'
p295
tp296
Rp297
aa(lp298
g253
aS'Pf'
p299
ag4
(g8
S'x\xb5=\xac\xa8\x84\xf6?'
p300
tp301
Rp302
aa(lp303
g253
aS'SA'
p304
ag4
(g8
S'\xbb\x0e\xf21g\x8c\xf5?'
p305
tp306
Rp307
aa(lp308
g253
aS'Inc'
p309
ag4
(g8
S'\xed\xcb\xfb\xea>\xa8\xf6?'
p310
tp311
Rp312
aa(lp313
S'BI'
p314
aS'Use'
p315
ag4
(g8
S'\xd0b+\x8e\x04L\xfc?'
p316
tp317
Rp318
aa(lp319
g314
aS'Qu'
p320
ag4
(g8
S'\xe3Uj\xfe\x0cH\xf7?'
p321
tp322
Rp323
aa(lp324
g314
aS'PU'
p325
ag4
(g8
S'VWz7\xf6\x8a\xfa?'
p326
tp327
Rp328
aa(lp329
g314
aS'PEU'
p330
ag4
(g8
S'2S\xd6\x81\xd7 \xf6?'
p331
tp332
Rp333
aa(lp334
g314
aS'ENJ'
p335
ag4
(g8
S'<\x98\x0b\xc9N\xfd\xf7?'
p336
tp337
Rp338
aa(lp339
g314
aS'JR'
p340
ag4
(g8
S'`\r\xa17\xc8\x82\xf7?'
p341
tp342
Rp343
aa(lp344
g314
aS'Vis'
p345
ag4
(g8
S'N\x85\x8a\x82\xf1J\xfa?'
p346
tp347
Rp348
aa(lp349
g314
aS'Pf'
p350
ag4
(g8
S'"\x85\xf1:\xd8\x93\xf7?'
p351
tp352
Rp353
aa(lp354
g314
aS'Exp'
p355
ag4
(g8
S'\x91\xf7\x9d\xb8Y-\xf9?'
p356
tp357
Rp358
aa(lp359
g314
aS'Im'
p360
ag4
(g8
S'C\x90\xa2\x8a\xe6\xf0\xf6?'
p361
tp362
Rp363
aa(lp364
g314
aS'SA'
p365
ag4
(g8
S'\xe2\xf6\x91\xb1\xb2\xed\xf5?'
p366
tp367
Rp368
aa(lp369
g314
aS'Inc'
p370
ag4
(g8
S'\xb6:\xf5\xfeY\xf5\xf6?'
p371
tp372
Rp373
aa(lp374
S'JR'
p375
aS'Use'
p376
ag4
(g8
S'\x0b\xf4\xc4h\xfc\xb8\xf6?'
p377
tp378
Rp379
aa(lp380
g375
aS'Qu'
p381
ag4
(g8
S'+\x93\x99\xc7\x8eD\xf6?'
p382
tp383
Rp384
aa(lp385
g375
aS'PU'
p386
ag4
(g8
S't\x18\xd1\x9e\xc5\x89\xf6?'
p387
tp388
Rp389
aa(lp390
g375
aS'PEU'
p391
ag4
(g8
S'0\xac\xf2h\x8f1\xf6?'
p392
tp393
Rp394
aa(lp395
g375
aS'ENJ'
p396
ag4
(g8
S'1\xba\x98\xa3c\xca\xf6?'
p397
tp398
Rp399
aa(lp400
g375
aS'BI'
p401
ag4
(g8
S'@\xb6`\xca4\xf1\xf8?'
p402
tp403
Rp404
aa(lp405
g375
aS'Vis'
p406
ag4
(g8
S'\xca\x0e\nZ\r\x8e\xf6?'
p407
tp408
Rp409
aa(lp410
g375
aS'Im'
p411
ag4
(g8
S'\\\xb9\xf1\xa4:\xf5\xf5?'
p412
tp413
Rp414
aa(lp415
g375
aS'Exp'
p416
ag4
(g8
S'\xca\xc7i\xb9X\x02\xf6?'
p417
tp418
Rp419
aa(lp420
g375
aS'Pf'
p421
ag4
(g8
S"\xdf\x0c'G\xb6\x83\xf6?"
p422
tp423
Rp424
aa(lp425
g375
aS'SA'
p426
ag4
(g8
S'M\xd5c\xebL\xf5\xf3?'
p427
tp428
Rp429
aa(lp430
g375
aS'Inc'
p431
ag4
(g8
S'\x8cU\xc3\x8cIV\xf6?'
p432
tp433
Rp434
aa(lp435
S'Vis'
p436
aS'Use'
p437
ag4
(g8
S'~\x91\xbf\x9f\xcf\x93\xfa?'
p438
tp439
Rp440
aa(lp441
g436
aS'Qu'
p442
ag4
(g8
S'\x9e\xf3\x16\xd8O\x16\xf7?'
p443
tp444
Rp445
aa(lp446
g436
aS'PU'
p447
ag4
(g8
S'R\xfeQZ\xdd9\xfa?'
p448
tp449
Rp450
aa(lp451
g436
aS'PEU'
p452
ag4
(g8
S'\xc1\xe1\xff\xac\x14\x98\xf7?'
p453
tp454
Rp455
aa(lp456
g436
aS'ENJ'
p457
ag4
(g8
S'\x84l\xcf\xcf\xd1\x14\xf7?'
p458
tp459
Rp460
aa(lp461
g436
aS'BI'
p462
ag4
(g8
S'j;\x9b@\x7f\xaa\xfe?'
p463
tp464
Rp465
aa(lp466
g436
aS'JR'
p467
ag4
(g8
S'\xf6\xd4\xe212\xad\xf6?'
p468
tp469
Rp470
aa(lp471
g436
aS'Im'
p472
ag4
(g8
S'=\xc4!\xc6\xb5\xeb\xf6?'
p473
tp474
Rp475
aa(lp476
g436
aS'Exp'
p477
ag4
(g8
S'X\xc7\xa3]\x1a\xf3\xf7?'
p478
tp479
Rp480
aa(lp481
g436
aS'Pf'
p482
ag4
(g8
S'\xae\xf91\xb5<\t\xf8?'
p483
tp484
Rp485
aa(lp486
g436
aS'SA'
p487
ag4
(g8
S'E.\x82\x06\x8b\xa2\xf5?'
p488
tp489
Rp490
aa(lp491
g436
aS'Inc'
p492
ag4
(g8
S'k^t\x8dp\x0f\xf6?'
p493
tp494
Rp495
aa(lp496
S'Pf'
p497
aS'Use'
p498
ag4
(g8
S'\xab\x99\xe7\xa0G\x80\xf7?'
p499
tp500
Rp501
aa(lp502
g497
aS'Qu'
p503
ag4
(g8
S'(C\xf1\xe3\x14\xc7\xf5?'
p504
tp505
Rp506
aa(lp507
g497
aS'PU'
p508
ag4
(g8
S"?'VX\x90q\xf6?"
p509
tp510
Rp511
aa(lp512
g497
aS'PEU'
p513
ag4
(g8
S'\x19;:\r\xa4\xd7\xf5?'
p514
tp515
Rp516
aa(lp517
g497
aS'ENJ'
p518
ag4
(g8
S'\x19\x86\xde\xfa\x05\xce\xf5?'
p519
tp520
Rp521
aa(lp522
g497
aS'BI'
p523
ag4
(g8
S'+\xbc\x00\t\x84\xfd\xf7?'
p524
tp525
Rp526
aa(lp527
g497
aS'JR'
p528
ag4
(g8
S'\x84[\xfd\xcfk\x81\xf6?'
p529
tp530
Rp531
aa(lp532
g497
aS'Vis'
p533
ag4
(g8
S'\xc3\xd8O\xca\x8e\xe3\xf7?'
p534
tp535
Rp536
aa(lp537
g497
aS'Im'
p538
ag4
(g8
S'\xeb\x0f\xc5\xba,\xc5\xf5?'
p539
tp540
Rp541
aa(lp542
g497
aS'Exp'
p543
ag4
(g8
S'\xf06\x14s\xcb\xc0\xf6?'
p544
tp545
Rp546
aa(lp547
g497
aS'SA'
p548
ag4
(g8
S'\x93\xee\x93-\x8cz\xf5?'
p549
tp550
Rp551
aa(lp552
g497
aS'Inc'
p553
ag4
(g8
S'qY@\xa1\xec\xdc\xf5?'
p554
tp555
Rp556
aa(lp557
S'Exp'
p558
aS'Use'
p559
ag4
(g8
S'hr\x808/\xdc\xfb?'
p560
tp561
Rp562
aa(lp563
g558
aS'Qu'
p564
ag4
(g8
S'T"\x08\x9adv\xf7?'
p565
tp566
Rp567
aa(lp568
g558
aS'PU'
p569
ag4
(g8
S'\x9d\x88O\xa5s\x8e\xf8?'
p570
tp571
Rp572
aa(lp573
g558
aS'PEU'
p574
ag4
(g8
S'\xe6\x16\x00\xc5|\x08\xf6?'
p575
tp576
Rp577
aa(lp578
g558
aS'ENJ'
p579
ag4
(g8
S'\x85\xa0\x03\xb2\xc3l\xf7?'
p580
tp581
Rp582
aa(lp583
g558
aS'BI'
p584
ag4
(g8
S'\x82\xda\x93\xf6\xb8J\xfd?'
p585
tp586
Rp587
aa(lp588
g558
aS'JR'
p589
ag4
(g8
S'6\xf3\x85\x80\xb9\x1b\xf7?'
p590
tp591
Rp592
aa(lp593
g558
aS'Vis'
p594
ag4
(g8
S'\x1d\xc6\xb1\x989\xdc\xf8?'
p595
tp596
Rp597
aa(lp598
g558
aS'Pf'
p599
ag4
(g8
S'\x04\x05\x19\x909\x82\xf7?'
p600
tp601
Rp602
aa(lp603
g558
aS'Im'
p604
ag4
(g8
S'\xe5\x95\xb7\t&L\xf6?'
p605
tp606
Rp607
aa(lp608
g558
aS'SA'
p609
ag4
(g8
S'0\x0c\xc9\xe2Lv\xf6?'
p610
tp611
Rp612
aa(lp613
g558
aS'Inc'
p614
ag4
(g8
S'\x03I]{\xf7\xd1\xf6?'
p615
tp616
Rp617
aa(lp618
S'Im'
p619
aS'Use'
p620
ag4
(g8
S'8\x0f\x98\xa2\xfd\x9a\xf8?'
p621
tp622
Rp623
aa(lp624
g619
aS'Qu'
p625
ag4
(g8
S'J}\xc0!\x9cl\xf6?'
p626
tp627
Rp628
aa(lp629
g619
aS'PU'
p630
ag4
(g8
S'>\xbfK\xb7G"\xf8?'
p631
tp632
Rp633
aa(lp634
g619
aS'PEU'
p635
ag4
(g8
S'\x17\x9eO\x15\xb3\xc5\xf5?'
p636
tp637
Rp638
aa(lp639
g619
aS'ENJ'
p640
ag4
(g8
S'\x9f\n?< \xe1\xf6?'
p641
tp642
Rp643
aa(lp644
g619
aS'BI'
p645
ag4
(g8
S'e\xb5R\x9b\xb8\x1c\xf9?'
p646
tp647
Rp648
aa(lp649
g619
aS'JR'
p650
ag4
(g8
S'F~\x91\xdd\xd9.\xf7?'
p651
tp652
Rp653
aa(lp654
g619
aS'Vis'
p655
ag4
(g8
S'Ly\x8e\x1a\x93\x82\xf8?'
p656
tp657
Rp658
aa(lp659
g619
aS'Pf'
p660
ag4
(g8
S'\xfdg\xd8\xaa\xed\x87\xf6?'
p661
tp662
Rp663
aa(lp664
g619
aS'Exp'
p665
ag4
(g8
S'\x99w\xfbY6s\xf6?'
p666
tp667
Rp668
aa(lp669
g619
aS'SA'
p670
ag4
(g8
S'\x1c\x03\xcb\x81\x8bJ\xf5?'
p671
tp672
Rp673
aa(lp674
g619
aS'Inc'
p675
ag4
(g8
S'c\xb3&\xe9\xa8)\xf6?'
p676
tp677
Rp678
aa(lp679
S'SA'
p680
aS'Use'
p681
ag4
(g8
S'\xe1\x84\xe9\xd24\x9d\xf6?'
p682
tp683
Rp684
aa(lp685
g680
aS'Qu'
p686
ag4
(g8
S'\x87_Q_\xc0m\xf6?'
p687
tp688
Rp689
aa(lp690
g680
aS'PU'
p691
ag4
(g8
S'Ti\xc0\xca\x13\xfb\xf5?'
p692
tp693
Rp694
aa(lp695
g680
aS'PEU'
p696
ag4
(g8
S'\xc2\xe3\x9b\x07Q6\xf6?'
p697
tp698
Rp699
aa(lp700
g680
aS'ENJ'
p701
ag4
(g8
S'g0\xe1qt\x99\xf8?'
p702
tp703
Rp704
aa(lp705
g680
aS'BI'
p706
ag4
(g8
S'\xdc\xc7\x8c\x91\x0f`\xf8?'
p707
tp708
Rp709
aa(lp710
g680
aS'JR'
p711
ag4
(g8
S'\x8a\xa5$q\xe4\xdc\xf6?'
p712
tp713
Rp714
aa(lp715
g680
aS'Vis'
p716
ag4
(g8
S'+M\xf3s\xad\x07\xf7?'
p717
tp718
Rp719
aa(lp720
g680
aS'Pf'
p721
ag4
(g8
S'\xcd\xcb\x88Q\x85Q\xf7?'
p722
tp723
Rp724
aa(lp725
g680
aS'Exp'
p726
ag4
(g8
S'\x04[z\xb0Al\xf6?'
p727
tp728
Rp729
aa(lp730
g680
aS'Im'
p731
ag4
(g8
S':\xf0\x82\xf4\x04\xd8\xf4?'
p732
tp733
Rp734
aa(lp735
g680
aS'Inc'
p736
ag4
(g8
S'c~\xf4\xd2\xa7{\xf6?'
p737
tp738
Rp739
aa(lp740
S'Inc'
p741
aS'Use'
p742
ag4
(g8
S'\xa6\xf8F]\x1f\xcc\xf6?'
p743
tp744
Rp745
aa(lp746
g741
aS'Qu'
p747
ag4
(g8
S'\x88\xf1x\x06\xbdB\xf6?'
p748
tp749
Rp750
aa(lp751
g741
aS'PU'
p752
ag4
(g8
S'z[\xec\xa0\x10t\xf7?'
p753
tp754
Rp755
aa(lp756
g741
aS'PEU'
p757
ag4
(g8
S'&\xd1\xc3&\xb7\xf2\xf5?'
p758
tp759
Rp760
aa(lp761
g741
aS'ENJ'
p762
ag4
(g8
S'\xc2,o\x86\x86\x04\xf7?'
p763
tp764
Rp765
aa(lp766
g741
aS'BI'
p767
ag4
(g8
S'|\x8a\xb6\x8a\xdc[\xfa?'
p768
tp769
Rp770
aa(lp771
g741
aS'JR'
p772
ag4
(g8
S'\xf7$t\x95h<\xf7?'
p773
tp774
Rp775
aa(lp776
g741
aS'Vis'
p777
ag4
(g8
S'w[\xba\xe5\xcf:\xf8?'
p778
tp779
Rp780
aa(lp781
g741
aS'Im'
p782
ag4
(g8
S'q\x08\x0b4{(\xf5?'
p783
tp784
Rp785
aa(lp786
g741
aS'Exp'
p787
ag4
(g8
S'p\x0cY1\xf6\xad\xf6?'
p788
tp789
Rp790
aa(lp791
g741
aS'Pf'
p792
ag4
(g8
S'\x98\x18l#\xf8\xc7\xf6?'
p793
tp794
Rp795
aa(lp796
g741
aS'SA'
p797
ag4
(g8
S'\xae+Z+6!\xf5?'
p798
tp799
Rp800
aa.