(lp0
(lp1
S'Use'
p2
aS'Qu'
p3
acnumpy.core.multiarray
scalar
p4
(cnumpy
dtype
p5
(S'f8'
p6
I0
I1
tp7
Rp8
(I3
S'<'
p9
NNNI-1
I-1
I0
tp10
bS'\x85\xc8\x8b\x98\x93v\xf7?'
p11
tp12
Rp13
aa(lp14
g2
aS'PU'
p15
ag4
(g8
S'\\\xc5\xe37\x9c\xfd\xfb?'
p16
tp17
Rp18
aa(lp19
g2
aS'PEU'
p20
ag4
(g8
S'\xba\xe0\x8b\xbc\xfc\xa7\xf5?'
p21
tp22
Rp23
aa(lp24
g2
aS'ENJ'
p25
ag4
(g8
S'\x82\xd31\x93DS\xf7?'
p26
tp27
Rp28
aa(lp29
g2
aS'BI'
p30
ag4
(g8
S'\xedR\xf76"k\x01@'
p31
tp32
Rp33
aa(lp34
g2
aS'JR'
p35
ag4
(g8
S'\xb9%\x0c\x1c\xaa\xae\xf6?'
p36
tp37
Rp38
aa(lp39
g2
aS'Pf'
p40
ag4
(g8
S'[S7zby\xf6?'
p41
tp42
Rp43
aa(lp44
g2
aS'Im'
p45
ag4
(g8
S'M\x1d\x84F`\xf5\xf7?'
p46
tp47
Rp48
aa(lp49
g2
aS'SA'
p50
ag4
(g8
S'\xc2 \xc8\xc5\x03\xc1\xf5?'
p51
tp52
Rp53
aa(lp54
S'Qu'
p55
aS'Use'
p56
ag4
(g8
S'\r=\x14-p\xa7\xf7?'
p57
tp58
Rp59
aa(lp60
g55
aS'PU'
p61
ag4
(g8
S'\x8c\xd7\xc0Zq\xad\xf8?'
p62
tp63
Rp64
aa(lp65
g55
aS'PEU'
p66
ag4
(g8
S'\xd2qY\x7f\xd7\x98\xf5?'
p67
tp68
Rp69
aa(lp70
g55
aS'ENJ'
p71
ag4
(g8
S'\x10\xf5\xb4\x986\xba\xf7?'
p72
tp73
Rp74
aa(lp75
g55
aS'BI'
p76
ag4
(g8
S'\xf3a"\x88\xe9\xec\xf8?'
p77
tp78
Rp79
aa(lp80
g55
aS'JR'
p81
ag4
(g8
S'-\xb9\xe7\xc6\xf3\xca\xf6?'
p82
tp83
Rp84
aa(lp85
g55
aS'Im'
p86
ag4
(g8
S'\xa6\xb7\x14\x9c\xa7\x83\xf6?'
p87
tp88
Rp89
aa(lp90
g55
aS'Pf'
p91
ag4
(g8
S'n\x86\\e\xd4\xe5\xf5?'
p92
tp93
Rp94
aa(lp95
g55
aS'SA'
p96
ag4
(g8
S'G\xa7\x12\xabL\r\xf5?'
p97
tp98
Rp99
aa(lp100
S'PU'
p101
aS'Use'
p102
ag4
(g8
S'\x95\xc9\xa7\r\xbc/\xfa?'
p103
tp104
Rp105
aa(lp106
g101
aS'Qu'
p107
ag4
(g8
S'\xbf\xca3\x1d\xce-\xf8?'
p108
tp109
Rp110
aa(lp111
g101
aS'PEU'
p112
ag4
(g8
S'\xd1\x8c\x808+\x00\xf6?'
p113
tp114
Rp115
aa(lp116
g101
aS'ENJ'
p117
ag4
(g8
S'M\x15C"^\xb6\xf8?'
p118
tp119
Rp120
aa(lp121
g101
aS'BI'
p122
ag4
(g8
S'\xe6UX[\xee\xa9\xfc?'
p123
tp124
Rp125
aa(lp126
g101
aS'JR'
p127
ag4
(g8
S'\t\x95\xa7VI\xac\xf6?'
p128
tp129
Rp130
aa(lp131
g101
aS'Pf'
p132
ag4
(g8
S'\x17\x1e\xc8\x19i#\xf6?'
p133
tp134
Rp135
aa(lp136
g101
aS'Im'
p137
ag4
(g8
S'=\x05J\xe6\x96\x8c\xf7?'
p138
tp139
Rp140
aa(lp141
g101
aS'SA'
p142
ag4
(g8
S'u\xe7\x90\x95=\xe0\xf4?'
p143
tp144
Rp145
aa(lp146
S'PEU'
p147
aS'Use'
p148
ag4
(g8
S"\xc4B'S\xcb|\xf5?"
p149
tp150
Rp151
aa(lp152
g147
aS'Qu'
p153
ag4
(g8
S" Z'\xa3#\x8d\xf6?"
p154
tp155
Rp156
aa(lp157
g147
aS'PU'
p158
ag4
(g8
S'"\xda\xeb\\f\x88\xf6?'
p159
tp160
Rp161
aa(lp162
g147
aS'ENJ'
p163
ag4
(g8
S'~6~rq\x15\xf8?'
p164
tp165
Rp166
aa(lp167
g147
aS'BI'
p168
ag4
(g8
S'\x97j\xc0\xa6\x19W\xf8?'
p169
tp170
Rp171
aa(lp172
g147
aS'JR'
p173
ag4
(g8
S'\x99|\x88kW\\\xf6?'
p174
tp175
Rp176
aa(lp177
g147
aS'Pf'
p178
ag4
(g8
S'\xe5.\xc3\xedpc\xf6?'
p179
tp180
Rp181
aa(lp182
g147
aS'Im'
p183
ag4
(g8
S'\xee<.0\xd1d\xf5?'
p184
tp185
Rp186
aa(lp187
g147
aS'SA'
p188
ag4
(g8
S'gq\xb8\xe8\xf6\xef\xf4?'
p189
tp190
Rp191
aa(lp192
S'ENJ'
p193
aS'Use'
p194
ag4
(g8
S'\xc7*`\xf8r\xa7\xf5?'
p195
tp196
Rp197
aa(lp198
g193
aS'Qu'
p199
ag4
(g8
S'~D\x9fx<d\xf6?'
p200
tp201
Rp202
aa(lp203
g193
aS'PU'
p204
ag4
(g8
S'\x01\x85\xe0U\xc4\x9b\xf7?'
p205
tp206
Rp207
aa(lp208
g193
aS'PEU'
p209
ag4
(g8
S'{\x8a\xeeP\xe3\xd7\xf6?'
p210
tp211
Rp212
aa(lp213
g193
aS'BI'
p214
ag4
(g8
S'\xe7h\xf4\x0c\x17\x9a\xf8?'
p215
tp216
Rp217
aa(lp218
g193
aS'JR'
p219
ag4
(g8
S'k\xccn\xa2\x86\xb5\xf7?'
p220
tp221
Rp222
aa(lp223
g193
aS'Im'
p224
ag4
(g8
S'<\x8f\xa5\x88!\xd6\xf5?'
p225
tp226
Rp227
aa(lp228
g193
aS'Pf'
p229
ag4
(g8
S'\xc9L+\xf4B\xcf\xf5?'
p230
tp231
Rp232
aa(lp233
g193
aS'SA'
p234
ag4
(g8
S'\xbb\xf5h#b_\xf5?'
p235
tp236
Rp237
aa(lp238
S'BI'
p239
aS'Use'
p240
ag4
(g8
S'Q\x08\xaf\x9b\xaa{\xfc?'
p241
tp242
Rp243
aa(lp244
g239
aS'Qu'
p245
ag4
(g8
S'\xd7^\xdaq\x11\x8c\xf7?'
p246
tp247
Rp248
aa(lp249
g239
aS'PU'
p250
ag4
(g8
S'\xe7\xeb7<\xca\x8f\xfa?'
p251
tp252
Rp253
aa(lp254
g239
aS'PEU'
p255
ag4
(g8
S'\x8b\x12e\xacO7\xf6?'
p256
tp257
Rp258
aa(lp259
g239
aS'ENJ'
p260
ag4
(g8
S'\x84o\xe7$6\n\xf8?'
p261
tp262
Rp263
aa(lp264
g239
aS'JR'
p265
ag4
(g8
S'\xb9\x05+\xde\x02_\xf8?'
p266
tp267
Rp268
aa(lp269
g239
aS'Im'
p270
ag4
(g8
S'\xd3\xdd\x11^ZT\xf7?'
p271
tp272
Rp273
aa(lp274
g239
aS'Pf'
p275
ag4
(g8
S'\x90\xe5\xcae\x1e\xa0\xf6?'
p276
tp277
Rp278
aa(lp279
g239
aS'SA'
p280
ag4
(g8
S'\xdcu\xcc\xeeY\xaf\xf4?'
p281
tp282
Rp283
aa(lp284
S'JR'
p285
aS'Use'
p286
ag4
(g8
S'mB8\x1f4\\\xf4?'
p287
tp288
Rp289
aa(lp290
g285
aS'Qu'
p291
ag4
(g8
S'5;^wO\xd7\xf5?'
p292
tp293
Rp294
aa(lp295
g285
aS'PU'
p296
ag4
(g8
S'#Z\x96\xc1\x87\x8c\xf5?'
p297
tp298
Rp299
aa(lp300
g285
aS'PEU'
p301
ag4
(g8
S'z}\x8b5\x9f\xf6\xf5?'
p302
tp303
Rp304
aa(lp305
g285
aS'ENJ'
p306
ag4
(g8
S'\xe6"4[\xb4\xd9\xf6?'
p307
tp308
Rp309
aa(lp310
g285
aS'BI'
p311
ag4
(g8
S'\xe4\x08\xf9U\xcaf\xf8?'
p312
tp313
Rp314
aa(lp315
g285
aS'Pf'
p316
ag4
(g8
S'h\x12\x8a\x9e6\xcc\xf5?'
p317
tp318
Rp319
aa(lp320
g285
aS'Im'
p321
ag4
(g8
S'zKc\x7f\xdb3\xf6?'
p322
tp323
Rp324
aa(lp325
g285
aS'SA'
p326
ag4
(g8
S'\xab\xfd\xa4\x1d\xd8\x15\xf5?'
p327
tp328
Rp329
aa(lp330
S'Pf'
p331
aS'Use'
p332
ag4
(g8
S'{\xc8\x1feV\xb2\xf5?'
p333
tp334
Rp335
aa(lp336
g331
aS'Qu'
p337
ag4
(g8
S'\xa55\xd08\xa3\xd7\xf5?'
p338
tp339
Rp340
aa(lp341
g331
aS'PU'
p342
ag4
(g8
S'~\xcc\x83`_)\xf6?'
p343
tp344
Rp345
aa(lp346
g331
aS'PEU'
p347
ag4
(g8
S'G\xedD<M\x14\xf6?'
p348
tp349
Rp350
aa(lp351
g331
aS'ENJ'
p352
ag4
(g8
S'\xe3\x80:\xf7\xb8+\xf6?'
p353
tp354
Rp355
aa(lp356
g331
aS'BI'
p357
ag4
(g8
S'\xc7\xb3W\xa3\x95\x1a\xf7?'
p358
tp359
Rp360
aa(lp361
g331
aS'JR'
p362
ag4
(g8
S'\x84\x9a0\xc2\xd2\xb8\xf6?'
p363
tp364
Rp365
aa(lp366
g331
aS'Im'
p367
ag4
(g8
S'\x83(\xe6^\xe4\xdf\xf5?'
p368
tp369
Rp370
aa(lp371
g331
aS'SA'
p372
ag4
(g8
S'\xc9\x02L\xaa\xac\x9d\xf5?'
p373
tp374
Rp375
aa(lp376
S'Im'
p377
aS'Use'
p378
ag4
(g8
S'Ch[\xfe\x93\xc0\xf7?'
p379
tp380
Rp381
aa(lp382
g377
aS'Qu'
p383
ag4
(g8
S'Ng;\x0e\xcbK\xf6?'
p384
tp385
Rp386
aa(lp387
g377
aS'PU'
p388
ag4
(g8
S'\xf6\xdd\x92\x83\xbf\xd3\xf7?'
p389
tp390
Rp391
aa(lp392
g377
aS'PEU'
p393
ag4
(g8
S'\xd9\x96\xd1\x9a\xbb\x1b\xf6?'
p394
tp395
Rp396
aa(lp397
g377
aS'ENJ'
p398
ag4
(g8
S"X'\xb6\x93@\x9c\xf6?"
p399
tp400
Rp401
aa(lp402
g377
aS'BI'
p403
ag4
(g8
S'\xef\x85\xff\xcc\xb1\xbd\xf9?'
p404
tp405
Rp406
aa(lp407
g377
aS'JR'
p408
ag4
(g8
S'6Y\xaf/\xf7\n\xf7?'
p409
tp410
Rp411
aa(lp412
g377
aS'Pf'
p413
ag4
(g8
S'\xf4\xddL\xdaW\x8c\xf5?'
p414
tp415
Rp416
aa(lp417
g377
aS'SA'
p418
ag4
(g8
S'-hT\xe1\x02\xfd\xf5?'
p419
tp420
Rp421
aa(lp422
S'SA'
p423
aS'Use'
p424
ag4
(g8
S' \x16#\x83\xda`\xf5?'
p425
tp426
Rp427
aa(lp428
g423
aS'Qu'
p429
ag4
(g8
S'4\xa3\xf4NDj\xf6?'
p430
tp431
Rp432
aa(lp433
g423
aS'PU'
p434
ag4
(g8
S'\xd0-#\xdca\xe3\xf5?'
p435
tp436
Rp437
aa(lp438
g423
aS'PEU'
p439
ag4
(g8
S'\xb4\xaaAs\x18\x16\xf6?'
p440
tp441
Rp442
aa(lp443
g423
aS'ENJ'
p444
ag4
(g8
S'n\xcb3}\xea\xbb\xf7?'
p445
tp446
Rp447
aa(lp448
g423
aS'BI'
p449
ag4
(g8
S'\xd8\x16H\xf0\x87\xc0\xf6?'
p450
tp451
Rp452
aa(lp453
g423
aS'JR'
p454
ag4
(g8
S':?;\xec\xb6\xe8\xf6?'
p455
tp456
Rp457
aa(lp458
g423
aS'Im'
p459
ag4
(g8
S'\xd2\xed\xe6\x16\x9a\xe8\xf5?'
p460
tp461
Rp462
aa(lp463
g423
aS'Pf'
p464
ag4
(g8
S'\xa6]3)\x7f\x92\xf6?'
p465
tp466
Rp467
aa.